target datalayout = "e-m:e-p270:32:32-p271:32:32-p272:64:64-i64:64-i128:128-f80:128-n8:16:32:64-S128"
target triple = "x86_64-pc-linux-gnu"

%struct.TValue = type { %union.Value, i8 }
%union.Value = type { ptr }
%struct.Table = type { ptr, i8, i8, i8, i8, i32, ptr, ptr, ptr, ptr }
%struct.lua_State = type { ptr, i8, i8, i8, i8, i16, %union.StkIdRel, ptr, ptr, %union.StkIdRel, %union.StkIdRel, ptr, %union.StkIdRel, ptr, ptr, ptr, %struct.CallInfo, ptr, i64, i32, i32, i32, i32, i32, %struct.anon.3 }
%union.StkIdRel = type { ptr }
%struct.CallInfo = type { %union.StkIdRel, %union.StkIdRel, ptr, ptr, %union.anon.0, %union.anon.2, i32 }
%union.anon.0 = type { %struct.anon.1 }
%struct.anon.1 = type { ptr, i64, i64 }
%union.anon.2 = type { i32 }
%struct.anon.3 = type { i32, i32 }
%struct.global_State = type { ptr, ptr, i64, i64, i64, i64, %struct.stringtable, %struct.TValue, %struct.TValue, i32, [6 x i8], i8, i8, i8, i8, i8, i8, ptr, ptr, ptr, ptr, ptr, ptr, ptr, ptr, ptr, ptr, ptr, ptr, ptr, ptr, ptr, ptr, ptr, ptr, ptr, ptr, ptr, [25 x ptr], [9 x ptr], [53 x [2 x ptr]], ptr, ptr }
%struct.stringtable = type { ptr, i32, i32 }
%struct.GCObject = type { ptr, i8, i8 }

@.str = private unnamed_addr constant [6 x i8] c"index\00", align 1
@.str.2 = private unnamed_addr constant [43 x i8] c"'__newindex' chain too long; possible loop\00", align 1

; Function Attrs: nounwind uwtable
define hidden void @luaV_finishset(ptr noundef %0, ptr noundef %1, ptr noundef %2, ptr noundef %3, i32 noundef %4) #0 {
  %6 = alloca ptr, align 8
  %7 = alloca ptr, align 8
  %8 = alloca ptr, align 8
  %9 = alloca ptr, align 8
  %10 = alloca i32, align 4
  %11 = alloca i32, align 4
  %12 = alloca ptr, align 8
  %13 = alloca ptr, align 8
  %14 = alloca i32, align 4
  store ptr %0, ptr %6, align 8, !tbaa !32
  store ptr %1, ptr %7, align 8, !tbaa !4
  store ptr %2, ptr %8, align 8, !tbaa !4
  store ptr %3, ptr %9, align 8, !tbaa !4
  store i32 %4, ptr %10, align 4, !tbaa !29
  call void @llvm.lifetime.start.p0(i64 4, ptr %11) #10
  store i32 0, ptr %11, align 4, !tbaa !29
  br label %15

15:                                               ; preds = %156, %5
  %16 = load i32, ptr %11, align 4, !tbaa !29
  %17 = icmp slt i32 %16, 2000
  br i1 %17, label %18, label %159

18:                                               ; preds = %15
  call void @llvm.lifetime.start.p0(i64 8, ptr %12) #10
  %19 = load i32, ptr %10, align 4, !tbaa !29
  %20 = icmp ne i32 %19, 2
  br i1 %20, label %21, label %99

21:                                               ; preds = %18
  call void @llvm.lifetime.start.p0(i64 8, ptr %13) #10
  %22 = load ptr, ptr %7, align 8, !tbaa !4
  %23 = getelementptr inbounds nuw %struct.TValue, ptr %22, i32 0, i32 0
  %24 = load ptr, ptr %23, align 8, !tbaa !13
  store ptr %24, ptr %13, align 8, !tbaa !51
  %25 = load ptr, ptr %13, align 8, !tbaa !51
  %26 = getelementptr inbounds nuw %struct.Table, ptr %25, i32 0, i32 8
  %27 = load ptr, ptr %26, align 8, !tbaa !36
  %28 = icmp eq ptr %27, null
  br i1 %28, label %38, label %29

29:                                               ; preds = %21
  %30 = load ptr, ptr %13, align 8, !tbaa !51
  %31 = getelementptr inbounds nuw %struct.Table, ptr %30, i32 0, i32 8
  %32 = load ptr, ptr %31, align 8, !tbaa !36
  %33 = getelementptr inbounds nuw %struct.Table, ptr %32, i32 0, i32 3
  %34 = load i8, ptr %33, align 2, !tbaa !41
  %35 = zext i8 %34 to i32
  %36 = and i32 %35, 2
  %37 = icmp ne i32 %36, 0
  br i1 %37, label %38, label %39

38:                                               ; preds = %29, %21
  br label %50

39:                                               ; preds = %29
  %40 = load ptr, ptr %13, align 8, !tbaa !51
  %41 = getelementptr inbounds nuw %struct.Table, ptr %40, i32 0, i32 8
  %42 = load ptr, ptr %41, align 8, !tbaa !36
  %43 = load ptr, ptr %6, align 8, !tbaa !32
  %44 = getelementptr inbounds nuw %struct.lua_State, ptr %43, i32 0, i32 7
  %45 = load ptr, ptr %44, align 8, !tbaa !42
  %46 = getelementptr inbounds nuw %struct.global_State, ptr %45, i32 0, i32 38
  %47 = getelementptr inbounds [25 x ptr], ptr %46, i64 0, i64 1
  %48 = load ptr, ptr %47, align 8, !tbaa !16
  %49 = call ptr @luaT_gettm(ptr noundef %42, i32 noundef 1, ptr noundef %48)
  br label %50

50:                                               ; preds = %39, %38
  %51 = phi ptr [ null, %38 ], [ %49, %39 ]
  store ptr %51, ptr %12, align 8, !tbaa !4
  %52 = load ptr, ptr %12, align 8, !tbaa !4
  %53 = icmp eq ptr %52, null
  br i1 %53, label %54, label %95

54:                                               ; preds = %50
  %55 = load ptr, ptr %6, align 8, !tbaa !32
  %56 = load ptr, ptr %13, align 8, !tbaa !51
  %57 = load ptr, ptr %8, align 8, !tbaa !4
  %58 = load ptr, ptr %9, align 8, !tbaa !4
  %59 = load i32, ptr %10, align 4, !tbaa !29
  call void @luaH_finishset(ptr noundef %55, ptr noundef %56, ptr noundef %57, ptr noundef %58, i32 noundef %59)
  %60 = load ptr, ptr %13, align 8, !tbaa !51
  %61 = getelementptr inbounds nuw %struct.Table, ptr %60, i32 0, i32 3
  %62 = load i8, ptr %61, align 2, !tbaa !41
  %63 = zext i8 %62 to i32
  %64 = and i32 %63, 192
  %65 = trunc i32 %64 to i8
  store i8 %65, ptr %61, align 2, !tbaa !41
  %66 = load ptr, ptr %9, align 8, !tbaa !4
  %67 = getelementptr inbounds nuw %struct.TValue, ptr %66, i32 0, i32 1
  %68 = load i8, ptr %67, align 8, !tbaa !11
  %69 = zext i8 %68 to i32
  %70 = and i32 %69, 64
  %71 = icmp ne i32 %70, 0
  br i1 %71, label %72, label %93

72:                                               ; preds = %54
  %73 = load ptr, ptr %13, align 8, !tbaa !51
  %74 = getelementptr inbounds nuw %struct.GCObject, ptr %73, i32 0, i32 2
  %75 = load i8, ptr %74, align 1, !tbaa !52
  %76 = zext i8 %75 to i32
  %77 = and i32 %76, 32
  %78 = icmp ne i32 %77, 0
  br i1 %78, label %79, label %91

79:                                               ; preds = %72
  %80 = load ptr, ptr %9, align 8, !tbaa !4
  %81 = getelementptr inbounds nuw %struct.TValue, ptr %80, i32 0, i32 0
  %82 = load ptr, ptr %81, align 8, !tbaa !13
  %83 = getelementptr inbounds nuw %struct.GCObject, ptr %82, i32 0, i32 2
  %84 = load i8, ptr %83, align 1, !tbaa !52
  %85 = zext i8 %84 to i32
  %86 = and i32 %85, 24
  %87 = icmp ne i32 %86, 0
  br i1 %87, label %88, label %91

88:                                               ; preds = %79
  %89 = load ptr, ptr %6, align 8, !tbaa !32
  %90 = load ptr, ptr %13, align 8, !tbaa !51
  call void @luaC_barrierback_(ptr noundef %89, ptr noundef %90)
  br label %92

91:                                               ; preds = %79, %72
  br label %92

92:                                               ; preds = %91, %88
  br label %94

93:                                               ; preds = %54
  br label %94

94:                                               ; preds = %93, %92
  store i32 1, ptr %14, align 4
  br label %96

95:                                               ; preds = %50
  store i32 0, ptr %14, align 4
  br label %96

96:                                               ; preds = %95, %94
  call void @llvm.lifetime.end.p0(i64 8, ptr %13) #10
  %97 = load i32, ptr %14, align 4
  switch i32 %97, label %153 [
    i32 0, label %98
  ]

98:                                               ; preds = %96
  br label %119

99:                                               ; preds = %18
  %100 = load ptr, ptr %6, align 8, !tbaa !32
  %101 = load ptr, ptr %7, align 8, !tbaa !4
  %102 = call ptr @luaT_gettmbyobj(ptr noundef %100, ptr noundef %101, i32 noundef 1)
  store ptr %102, ptr %12, align 8, !tbaa !4
  %103 = load ptr, ptr %12, align 8, !tbaa !4
  %104 = getelementptr inbounds nuw %struct.TValue, ptr %103, i32 0, i32 1
  %105 = load i8, ptr %104, align 8, !tbaa !11
  %106 = zext i8 %105 to i32
  %107 = and i32 %106, 15
  %108 = icmp eq i32 %107, 0
  %109 = zext i1 %108 to i32
  %110 = icmp ne i32 %109, 0
  %111 = zext i1 %110 to i32
  %112 = sext i32 %111 to i64
  %113 = call i64 @llvm.expect.i64(i64 %112, i64 0)
  %114 = icmp ne i64 %113, 0
  br i1 %114, label %115, label %118

115:                                              ; preds = %99
  %116 = load ptr, ptr %6, align 8, !tbaa !32
  %117 = load ptr, ptr %7, align 8, !tbaa !4
  call void @luaG_typeerror(ptr noundef %116, ptr noundef %117, ptr noundef @.str) #11
  unreachable

118:                                              ; preds = %99
  br label %119

119:                                              ; preds = %118, %98
  %120 = load ptr, ptr %12, align 8, !tbaa !4
  %121 = getelementptr inbounds nuw %struct.TValue, ptr %120, i32 0, i32 1
  %122 = load i8, ptr %121, align 8, !tbaa !11
  %123 = zext i8 %122 to i32
  %124 = and i32 %123, 15
  %125 = icmp eq i32 %124, 6
  br i1 %125, label %126, label %132

126:                                              ; preds = %119
  %127 = load ptr, ptr %6, align 8, !tbaa !32
  %128 = load ptr, ptr %12, align 8, !tbaa !4
  %129 = load ptr, ptr %7, align 8, !tbaa !4
  %130 = load ptr, ptr %8, align 8, !tbaa !4
  %131 = load ptr, ptr %9, align 8, !tbaa !4
  call void @luaT_callTM(ptr noundef %127, ptr noundef %128, ptr noundef %129, ptr noundef %130, ptr noundef %131)
  store i32 1, ptr %14, align 4
  br label %153

132:                                              ; preds = %119
  %133 = load ptr, ptr %12, align 8, !tbaa !4
  store ptr %133, ptr %7, align 8, !tbaa !4
  %134 = load ptr, ptr %7, align 8, !tbaa !4
  %135 = getelementptr inbounds nuw %struct.TValue, ptr %134, i32 0, i32 1
  %136 = load i8, ptr %135, align 8, !tbaa !11
  %137 = zext i8 %136 to i32
  %138 = icmp eq i32 %137, 69
  br i1 %138, label %140, label %139

139:                                              ; preds = %132
  br label %147

140:                                              ; preds = %132
  %141 = load ptr, ptr %7, align 8, !tbaa !4
  %142 = getelementptr inbounds nuw %struct.TValue, ptr %141, i32 0, i32 0
  %143 = load ptr, ptr %142, align 8, !tbaa !13
  %144 = load ptr, ptr %8, align 8, !tbaa !4
  %145 = load ptr, ptr %9, align 8, !tbaa !4
  %146 = call i32 @luaH_pset(ptr noundef %143, ptr noundef %144, ptr noundef %145)
  br label %147

147:                                              ; preds = %140, %139
  %148 = phi i32 [ 2, %139 ], [ %146, %140 ]
  store i32 %148, ptr %10, align 4, !tbaa !29
  %149 = load i32, ptr %10, align 4, !tbaa !29
  %150 = icmp eq i32 %149, 0
  br i1 %150, label %151, label %152

151:                                              ; preds = %147
  store i32 1, ptr %14, align 4
  br label %153

152:                                              ; preds = %147
  store i32 0, ptr %14, align 4
  br label %153

153:                                              ; preds = %152, %151, %126, %96
  call void @llvm.lifetime.end.p0(i64 8, ptr %12) #10
  %154 = load i32, ptr %14, align 4
  switch i32 %154, label %161 [
    i32 0, label %155
  ]

155:                                              ; preds = %153
  br label %156

156:                                              ; preds = %155
  %157 = load i32, ptr %11, align 4, !tbaa !29
  %158 = add nsw i32 %157, 1
  store i32 %158, ptr %11, align 4, !tbaa !29
  br label %15

159:                                              ; preds = %15
  %160 = load ptr, ptr %6, align 8, !tbaa !32
  call void (ptr, ptr, ...) @luaG_runerror(ptr noundef %160, ptr noundef @.str.2) #11
  unreachable

161:                                              ; preds = %153
  call void @llvm.lifetime.end.p0(i64 4, ptr %11) #10
  ret void
}