; Function Attrs: nounwind uwtable
define hidden void @luaV_finishset(ptr noundef %0, ptr noundef %1, ptr noundef %2, ptr noundef %3, i32 noundef %4) local_unnamed_addr #0 {
  %6 = getelementptr inbounds nuw i8, ptr %0, i64 24
  br label %7

7:                                                ; preds = %5, %.thread56
  %.04074 = phi ptr [ %1, %5 ], [ %.042, %.thread56 ]
  %.04373 = phi i32 [ 0, %5 ], [ %55, %.thread56 ]
  %.04472 = phi i32 [ %4, %5 ], [ %.145, %.thread56 ]
  %.not = icmp eq i32 %.04472, 2
  br i1 %.not, label %38, label %8

8:                                                ; preds = %7
  %9 = load ptr, ptr %.04074, align 8, !tbaa !8
  %10 = getelementptr inbounds nuw i8, ptr %9, i64 32
  %11 = load ptr, ptr %10, align 8, !tbaa !21
  %12 = icmp eq ptr %11, null
  br i1 %12, label %.thread, label %13

13:                                               ; preds = %8
  %14 = getelementptr inbounds nuw i8, ptr %11, i64 10
  %15 = load i8, ptr %14, align 2, !tbaa !26
  %16 = and i8 %15, 2
  %.not49 = icmp eq i8 %16, 0
  br i1 %.not49, label %17, label %.thread

17:                                               ; preds = %13
  %18 = load ptr, ptr %6, align 8, !tbaa !27
  %19 = getelementptr inbounds nuw i8, ptr %18, i64 288
  %20 = load ptr, ptr %19, align 8, !tbaa !38
  %21 = tail call ptr @luaT_gettm(ptr noundef nonnull %11, i32 noundef 1, ptr noundef %20) #13
  %.not53 = icmp eq ptr %21, null
  br i1 %.not53, label %.thread, label %..critedge_crit_edge

..critedge_crit_edge:                             ; preds = %17
  %.phi.trans.insert = getelementptr inbounds nuw i8, ptr %21, i64 8
  %.pre = load i8, ptr %.phi.trans.insert, align 8, !tbaa !4
  br label %.critedge

.thread:                                          ; preds = %8, %13, %17
  tail call void @luaH_finishset(ptr noundef %0, ptr noundef nonnull %9, ptr noundef %2, ptr noundef %3, i32 noundef %.04472) #13
  %22 = getelementptr inbounds nuw i8, ptr %9, i64 10
  %23 = load i8, ptr %22, align 2, !tbaa !26
  %24 = and i8 %23, -64
  store i8 %24, ptr %22, align 2, !tbaa !26
  %25 = getelementptr inbounds nuw i8, ptr %3, i64 8
  %26 = load i8, ptr %25, align 8, !tbaa !4
  %27 = and i8 %26, 64
  %.not50 = icmp eq i8 %27, 0
  br i1 %.not50, label %.loopexit, label %28

28:                                               ; preds = %.thread
  %29 = getelementptr inbounds nuw i8, ptr %9, i64 9
  %30 = load i8, ptr %29, align 1, !tbaa !40
  %31 = and i8 %30, 32
  %.not51 = icmp eq i8 %31, 0
  br i1 %.not51, label %.loopexit, label %32

32:                                               ; preds = %28
  %33 = load ptr, ptr %3, align 8, !tbaa !8
  %34 = getelementptr inbounds nuw i8, ptr %33, i64 9
  %35 = load i8, ptr %34, align 1, !tbaa !40
  %36 = and i8 %35, 24
  %.not52 = icmp eq i8 %36, 0
  br i1 %.not52, label %.loopexit, label %37

37:                                               ; preds = %32
  tail call void @luaC_barrierback_(ptr noundef %0, ptr noundef nonnull %9) #13
  br label %.loopexit

38:                                               ; preds = %7
  %39 = tail call ptr @luaT_gettmbyobj(ptr noundef %0, ptr noundef %.04074, i32 noundef 1) #13
  %40 = getelementptr inbounds nuw i8, ptr %39, i64 8
  %41 = load i8, ptr %40, align 8, !tbaa !4
  %42 = and i8 %41, 15
  %43 = icmp eq i8 %42, 0
  br i1 %43, label %44, label %.critedge, !prof !20

44:                                               ; preds = %38
  tail call void @luaG_typeerror(ptr noundef %0, ptr noundef %.04074, ptr noundef nonnull @.str) #14
  unreachable

.critedge:                                        ; preds = %..critedge_crit_edge, %38
  %45 = phi i8 [ %41, %38 ], [ %.pre, %..critedge_crit_edge ]
  %.042 = phi ptr [ %39, %38 ], [ %21, %..critedge_crit_edge ]
  %46 = and i8 %45, 15
  %47 = icmp eq i8 %46, 6
  br i1 %47, label %48, label %49

48:                                               ; preds = %.critedge
  tail call void @luaT_callTM(ptr noundef %0, ptr noundef nonnull %.042, ptr noundef %.04074, ptr noundef %2, ptr noundef %3) #13
  br label %.loopexit

49:                                               ; preds = %.critedge
  %50 = icmp eq i8 %45, 69
  br i1 %50, label %51, label %.thread56

51:                                               ; preds = %49
  %52 = load ptr, ptr %.042, align 8, !tbaa !8
  %53 = tail call i32 @luaH_pset(ptr noundef %52, ptr noundef %2, ptr noundef %3) #13
  %.fr = freeze i32 %53
  %54 = icmp eq i32 %.fr, 0
  br i1 %54, label %.loopexit, label %.thread56

.thread56:                                        ; preds = %49, %51
  %.145 = phi i32 [ %.fr, %51 ], [ 2, %49 ]
  %55 = add nuw nsw i32 %.04373, 1
  %exitcond.not = icmp eq i32 %55, 2000
  br i1 %exitcond.not, label %56, label %7

56:                                               ; preds = %.thread56
  tail call void (ptr, ptr, ...) @luaG_runerror(ptr noundef %0, ptr noundef nonnull @.str.2) #14
  unreachable

.loopexit:                                        ; preds = %51, %48, %28, %32, %37, %.thread
  ret void
}